target datalayout = "e-m:e-p270:32:32-p271:32:32-p272:64:64-i64:64-i128:128-f80:128-n8:16:32:64-S128"
target triple = "x86_64-pc-linux-gnu"

%struct._zval_struct = type { %union._zend_value, %union.anon, %union.anon.2 }
%union._zend_value = type { i64 }
%union.anon = type { i32 }
%union.anon.2 = type { i32 }
%struct._zend_array = type { %struct._zend_refcounted_h, %union.anon.4, i32, %union.anon.6, i32, i32, i32, i32, i64, ptr }
%struct._zend_refcounted_h = type { i32, %union.anon.3 }
%union.anon.3 = type { i32 }
%union.anon.4 = type { i32 }
%union.anon.6 = type { ptr }
%struct._php_random_status_state_mt19937 = type { i32, i32, [624 x i32] }
%struct._zend_string = type { %struct._zend_refcounted_h, i64, i64, [1 x i8] }
%struct.anon.0 = type { i8, i8, %union.anon.1 }
%union.anon.1 = type { i16 }

; Function Attrs: alwaysinline nounwind uwtable
define internal zeroext i8 @zval_get_type(ptr noundef %0) #7 {
  %2 = alloca ptr, align 8
  store ptr %0, ptr %2, align 8, !tbaa !28
  %3 = load ptr, ptr %2, align 8, !tbaa !28
  %4 = getelementptr inbounds nuw %struct._zval_struct, ptr %3, i32 0, i32 1
  %5 = getelementptr inbounds nuw %struct.anon.0, ptr %4, i32 0, i32 0
  %6 = load i8, ptr %5, align 8, !tbaa !32
  ret i8 %6
}

; Function Attrs: alwaysinline nounwind uwtable
define internal i32 @zend_hash_num_elements(ptr noundef %0) #7 {
  %2 = alloca ptr, align 8
  store ptr %0, ptr %2, align 8, !tbaa !26
  %3 = load ptr, ptr %2, align 8, !tbaa !26
  %4 = getelementptr inbounds nuw %struct._zend_array, ptr %3, i32 0, i32 5
  %5 = load i32, ptr %4, align 4, !tbaa !107
  ret i32 %5
}

; Function Attrs: nounwind uwtable
define internal zeroext i1 @unserialize(ptr noundef %0, ptr noundef %1) #2 {
  %3 = alloca i1, align 1
  %4 = alloca ptr, align 8
  %5 = alloca ptr, align 8
  %6 = alloca ptr, align 8
  %7 = alloca ptr, align 8
  %8 = alloca i32, align 4
  %9 = alloca i32, align 4
  store ptr %0, ptr %4, align 8, !tbaa !16
  store ptr %1, ptr %5, align 8, !tbaa !26
  call void @llvm.lifetime.start.p0(i64 8, ptr %6) #10
  %10 = load ptr, ptr %4, align 8, !tbaa !16
  store ptr %10, ptr %6, align 8, !tbaa !4
  call void @llvm.lifetime.start.p0(i64 8, ptr %7) #10
  %11 = load ptr, ptr %5, align 8, !tbaa !26
  %12 = call i32 @zend_hash_num_elements(ptr noundef %11)
  %13 = icmp ne i32 %12, 626
  br i1 %13, label %14, label %15

14:                                               ; preds = %2
  store i1 false, ptr %3, align 1
  store i32 1, ptr %8, align 4
  br label %109

15:                                               ; preds = %2
  call void @llvm.lifetime.start.p0(i64 4, ptr %9) #10
  store i32 0, ptr %9, align 4, !tbaa !9
  br label %16

16:                                               ; preds = %52, %15
  %17 = load i32, ptr %9, align 4, !tbaa !9
  %18 = icmp ult i32 %17, 624
  br i1 %18, label %20, label %19

19:                                               ; preds = %16
  store i32 2, ptr %8, align 4
  br label %55

20:                                               ; preds = %16
  %21 = load ptr, ptr %5, align 8, !tbaa !26
  %22 = load i32, ptr %9, align 4, !tbaa !9
  %23 = zext i32 %22 to i64
  %24 = call ptr @zend_hash_index_find(ptr noundef %21, i64 noundef %23)
  store ptr %24, ptr %7, align 8, !tbaa !28
  %25 = load ptr, ptr %7, align 8, !tbaa !28
  %26 = icmp ne ptr %25, null
  br i1 %26, label %27, label %39

27:                                               ; preds = %20
  %28 = load ptr, ptr %7, align 8, !tbaa !28
  %29 = call zeroext i8 @zval_get_type(ptr noundef %28)
  %30 = zext i8 %29 to i32
  %31 = icmp ne i32 %30, 6
  br i1 %31, label %39, label %32

32:                                               ; preds = %27
  %33 = load ptr, ptr %7, align 8, !tbaa !28
  %34 = getelementptr inbounds nuw %struct._zval_struct, ptr %33, i32 0, i32 0
  %35 = load ptr, ptr %34, align 8, !tbaa !32
  %36 = getelementptr inbounds nuw %struct._zend_string, ptr %35, i32 0, i32 2
  %37 = load i64, ptr %36, align 8, !tbaa !33
  %38 = icmp ne i64 %37, 8
  br i1 %38, label %39, label %40

39:                                               ; preds = %32, %27, %20
  store i1 false, ptr %3, align 1
  store i32 1, ptr %8, align 4
  br label %55

40:                                               ; preds = %32
  %41 = load ptr, ptr %7, align 8, !tbaa !28
  %42 = getelementptr inbounds nuw %struct._zval_struct, ptr %41, i32 0, i32 0
  %43 = load ptr, ptr %42, align 8, !tbaa !32
  %44 = load ptr, ptr %6, align 8, !tbaa !4
  %45 = getelementptr inbounds nuw %struct._php_random_status_state_mt19937, ptr %44, i32 0, i32 2
  %46 = load i32, ptr %9, align 4, !tbaa !9
  %47 = zext i32 %46 to i64
  %48 = getelementptr inbounds nuw [624 x i32], ptr %45, i64 0, i64 %47
  %49 = call zeroext i1 @php_random_hex2bin_le(ptr noundef %43, ptr noundef %48)
  br i1 %49, label %51, label %50

50:                                               ; preds = %40
  store i1 false, ptr %3, align 1
  store i32 1, ptr %8, align 4
  br label %55

51:                                               ; preds = %40
  br label %52

52:                                               ; preds = %51
  %53 = load i32, ptr %9, align 4, !tbaa !9
  %54 = add i32 %53, 1
  store i32 %54, ptr %9, align 4, !tbaa !9
  br label %16

55:                                               ; preds = %50, %39, %19
  call void @llvm.lifetime.end.p0(i64 4, ptr %9) #10
  %56 = load i32, ptr %8, align 4
  switch i32 %56, label %109 [
    i32 2, label %57
  ]

57:                                               ; preds = %55
  %58 = load ptr, ptr %5, align 8, !tbaa !26
  %59 = call ptr @zend_hash_index_find(ptr noundef %58, i64 noundef 624)
  store ptr %59, ptr %7, align 8, !tbaa !28
  %60 = load ptr, ptr %7, align 8, !tbaa !28
  %61 = icmp ne ptr %60, null
  br i1 %61, label %62, label %67

62:                                               ; preds = %57
  %63 = load ptr, ptr %7, align 8, !tbaa !28
  %64 = call zeroext i8 @zval_get_type(ptr noundef %63)
  %65 = zext i8 %64 to i32
  %66 = icmp ne i32 %65, 4
  br i1 %66, label %67, label %68

67:                                               ; preds = %62, %57
  store i1 false, ptr %3, align 1
  store i32 1, ptr %8, align 4
  br label %109

68:                                               ; preds = %62
  %69 = load ptr, ptr %7, align 8, !tbaa !28
  %70 = getelementptr inbounds nuw %struct._zval_struct, ptr %69, i32 0, i32 0
  %71 = load i64, ptr %70, align 8, !tbaa !32
  %72 = trunc i64 %71 to i32
  %73 = load ptr, ptr %6, align 8, !tbaa !4
  %74 = getelementptr inbounds nuw %struct._php_random_status_state_mt19937, ptr %73, i32 0, i32 0
  store i32 %72, ptr %74, align 4, !tbaa !11
  %75 = load ptr, ptr %6, align 8, !tbaa !4
  %76 = getelementptr inbounds nuw %struct._php_random_status_state_mt19937, ptr %75, i32 0, i32 0
  %77 = load i32, ptr %76, align 4, !tbaa !11
  %78 = icmp ugt i32 %77, 624
  br i1 %78, label %79, label %80

79:                                               ; preds = %68
  store i1 false, ptr %3, align 1
  store i32 1, ptr %8, align 4
  br label %109

80:                                               ; preds = %68
  %81 = load ptr, ptr %5, align 8, !tbaa !26
  %82 = call ptr @zend_hash_index_find(ptr noundef %81, i64 noundef 625)
  store ptr %82, ptr %7, align 8, !tbaa !28
  %83 = load ptr, ptr %7, align 8, !tbaa !28
  %84 = icmp ne ptr %83, null
  br i1 %84, label %85, label %90

85:                                               ; preds = %80
  %86 = load ptr, ptr %7, align 8, !tbaa !28
  %87 = call zeroext i8 @zval_get_type(ptr noundef %86)
  %88 = zext i8 %87 to i32
  %89 = icmp ne i32 %88, 4
  br i1 %89, label %90, label %91

90:                                               ; preds = %85, %80
  store i1 false, ptr %3, align 1
  store i32 1, ptr %8, align 4
  br label %109

91:                                               ; preds = %85
  %92 = load ptr, ptr %7, align 8, !tbaa !28
  %93 = getelementptr inbounds nuw %struct._zval_struct, ptr %92, i32 0, i32 0
  %94 = load i64, ptr %93, align 8, !tbaa !32
  %95 = trunc i64 %94 to i32
  %96 = load ptr, ptr %6, align 8, !tbaa !4
  %97 = getelementptr inbounds nuw %struct._php_random_status_state_mt19937, ptr %96, i32 0, i32 1
  store i32 %95, ptr %97, align 4, !tbaa !15
  %98 = load ptr, ptr %6, align 8, !tbaa !4
  %99 = getelementptr inbounds nuw %struct._php_random_status_state_mt19937, ptr %98, i32 0, i32 1
  %100 = load i32, ptr %99, align 4, !tbaa !15
  %101 = icmp ne i32 %100, 0
  br i1 %101, label %102, label %108

102:                                              ; preds = %91
  %103 = load ptr, ptr %6, align 8, !tbaa !4
  %104 = getelementptr inbounds nuw %struct._php_random_status_state_mt19937, ptr %103, i32 0, i32 1
  %105 = load i32, ptr %104, align 4, !tbaa !15
  %106 = icmp ne i32 %105, 1
  br i1 %106, label %107, label %108

107:                                              ; preds = %102
  store i1 false, ptr %3, align 1
  store i32 1, ptr %8, align 4
  br label %109

108:                                              ; preds = %102, %91
  store i1 true, ptr %3, align 1
  store i32 1, ptr %8, align 4
  br label %109

109:                                              ; preds = %108, %107, %90, %79, %67, %55, %14
  call void @llvm.lifetime.end.p0(i64 8, ptr %7) #10
  call void @llvm.lifetime.end.p0(i64 8, ptr %6) #10
  %110 = load i1, ptr %3, align 1
  ret i1 %110
}