; Function Attrs: nounwind uwtable
define internal zeroext i1 @unserialize(ptr noundef %0, ptr noundef %1) #3 {
  %3 = getelementptr inbounds nuw i8, ptr %1, i64 28
  %4 = load i32, ptr %3, align 4, !tbaa !12
  %.not = icmp eq i32 %4, 626
  br i1 %.not, label %.preheader, label %.loopexit

.preheader:                                       ; preds = %2
  %5 = getelementptr inbounds nuw i8, ptr %0, i64 8
  br label %7

6:                                                ; preds = %16
  %indvars.iv.next = add nuw nsw i64 %indvars.iv, 1
  %exitcond = icmp eq i64 %indvars.iv.next, 624
  br i1 %exitcond, label %.critedge, label %7

7:                                                ; preds = %.preheader, %6
  %indvars.iv = phi i64 [ 0, %.preheader ], [ %indvars.iv.next, %6 ]
  %8 = tail call ptr @zend_hash_index_find(ptr noundef %1, i64 noundef %indvars.iv) #7
  %.not32 = icmp eq ptr %8, null
  br i1 %.not32, label %.loopexit, label %9

9:                                                ; preds = %7
  %10 = getelementptr inbounds nuw i8, ptr %8, i64 8
  %11 = load i8, ptr %10, align 8, !tbaa !11
  %.not33 = icmp eq i8 %11, 6
  br i1 %.not33, label %12, label %.loopexit

12:                                               ; preds = %9
  %13 = load ptr, ptr %8, align 8, !tbaa !11
  %14 = getelementptr inbounds nuw i8, ptr %13, i64 16
  %15 = load i64, ptr %14, align 8, !tbaa !17
  %.not34 = icmp eq i64 %15, 8
  br i1 %.not34, label %16, label %.loopexit

16:                                               ; preds = %12
  %17 = getelementptr inbounds nuw [624 x i32], ptr %5, i64 0, i64 %indvars.iv
  %18 = tail call zeroext i1 @php_random_hex2bin_le(ptr noundef nonnull %13, ptr noundef nonnull %17) #7
  br i1 %18, label %6, label %.loopexit

.critedge:                                        ; preds = %6
  %19 = tail call ptr @zend_hash_index_find(ptr noundef %1, i64 noundef 624) #7
  %.not35 = icmp eq ptr %19, null
  br i1 %.not35, label %.loopexit, label %20

20:                                               ; preds = %.critedge
  %21 = getelementptr inbounds nuw i8, ptr %19, i64 8
  %22 = load i8, ptr %21, align 8, !tbaa !11
  %.not36 = icmp eq i8 %22, 4
  br i1 %.not36, label %23, label %.loopexit

23:                                               ; preds = %20
  %24 = load i64, ptr %19, align 8, !tbaa !11
  %25 = trunc i64 %24 to i32
  store i32 %25, ptr %0, align 4, !tbaa !8
  %26 = icmp ugt i32 %25, 624
  br i1 %26, label %.loopexit, label %27

27:                                               ; preds = %23
  %28 = tail call ptr @zend_hash_index_find(ptr noundef %1, i64 noundef 625) #7
  %.not37 = icmp eq ptr %28, null
  br i1 %.not37, label %.loopexit, label %29

29:                                               ; preds = %27
  %30 = getelementptr inbounds nuw i8, ptr %28, i64 8
  %31 = load i8, ptr %30, align 8, !tbaa !11
  %.not38 = icmp eq i8 %31, 4
  br i1 %.not38, label %32, label %.loopexit

32:                                               ; preds = %29
  %33 = load i64, ptr %28, align 8, !tbaa !11
  %34 = trunc i64 %33 to i32
  %35 = getelementptr inbounds nuw i8, ptr %0, i64 4
  store i32 %34, ptr %35, align 4, !tbaa !10
  %switch = icmp ult i32 %34, 2
  br label %.loopexit

.loopexit:                                        ; preds = %12, %9, %7, %16, %32, %27, %29, %23, %.critedge, %20, %2
  %.027 = phi i1 [ false, %2 ], [ false, %20 ], [ false, %.critedge ], [ false, %23 ], [ false, %29 ], [ false, %27 ], [ %switch, %32 ], [ false, %16 ], [ false, %7 ], [ false, %9 ], [ false, %12 ]
  ret i1 %.027
}